target datalayout = "e-m:e-p270:32:32-p271:32:32-p272:64:64-i64:64-i128:128-f80:128-n8:16:32:64-S128"
target triple = "x86_64-pc-linux-gnu"

%class.aiColor4t = type { float, float, float, float }

; Function Attrs: mustprogress uwtable
define i32 @aiGetMaterialColor(ptr noundef %0, ptr noundef %1, i32 noundef %2, i32 noundef %3, ptr noundef %4) #3 {
  %6 = alloca ptr, align 8
  %7 = alloca ptr, align 8
  %8 = alloca i32, align 4
  %9 = alloca i32, align 4
  %10 = alloca ptr, align 8
  %11 = alloca i32, align 4
  %12 = alloca i32, align 4
  store ptr %0, ptr %6, align 8
  store ptr %1, ptr %7, align 8
  store i32 %2, ptr %8, align 4
  store i32 %3, ptr %9, align 4
  store ptr %4, ptr %10, align 8
  call void @llvm.lifetime.start.p0(i64 4, ptr %11) #17
  store i32 4, ptr %11, align 4
  call void @llvm.lifetime.start.p0(i64 4, ptr %12) #17
  %13 = load ptr, ptr %6, align 8
  %14 = load ptr, ptr %7, align 8
  %15 = load i32, ptr %8, align 4
  %16 = load i32, ptr %9, align 4
  %17 = load ptr, ptr %10, align 8
  %18 = call i32 @aiGetMaterialFloatArray(ptr noundef %13, ptr noundef %14, i32 noundef %15, i32 noundef %16, ptr noundef %17, ptr noundef %11)
  store i32 %18, ptr %12, align 4
  %19 = load i32, ptr %11, align 4
  %20 = icmp eq i32 3, %19
  br i1 %20, label %21, label %24

21:                                               ; preds = %5
  %22 = load ptr, ptr %10, align 8
  %23 = getelementptr inbounds nuw %class.aiColor4t, ptr %22, i32 0, i32 3
  store float 1.000000e+00, ptr %23, align 4
  br label %24

24:                                               ; preds = %21, %5
  %25 = load i32, ptr %12, align 4
  call void @llvm.lifetime.end.p0(i64 4, ptr %12) #17
  call void @llvm.lifetime.end.p0(i64 4, ptr %11) #17
  ret i32 %25
}