; Function Attrs: mustprogress uwtable
define range(i32 -1, 1) i32 @aiGetMaterialColor(ptr noundef readonly captures(none) %0, ptr noundef %1, i32 noundef %2, i32 noundef %3, ptr noundef %4) local_unnamed_addr #3 {
  %6 = alloca i32, align 4
  call void @llvm.lifetime.start.p0(i64 4, ptr nonnull %6) #24
  store i32 4, ptr %6, align 4
  %7 = call i32 @aiGetMaterialFloatArray(ptr noundef %0, ptr noundef %1, i32 noundef %2, i32 noundef %3, ptr noundef %4, ptr noundef nonnull %6)
  %8 = load i32, ptr %6, align 4
  %9 = icmp eq i32 %8, 3
  br i1 %9, label %10, label %12

10:                                               ; preds = %5
  %11 = getelementptr inbounds nuw i8, ptr %4, i64 12
  store float 1.000000e+00, ptr %11, align 4
  br label %12

12:                                               ; preds = %10, %5
  call void @llvm.lifetime.end.p0(i64 4, ptr nonnull %6) #24
  ret i32 %7
}